; ModuleID = '38/1279.c'
source_filename = "38/1279.c"
target datalayout = "e-m:e-p270:32:32-p271:32:32-p272:64:64-i64:64-f80:128-n8:16:32:64-S128"
target triple = "x86_64-pc-linux-gnu"

@.str = private unnamed_addr constant [3 x i8] c"%d\00", align 1
@.str.1 = private unnamed_addr constant [4 x i8] c"%lf\00", align 1
@.str.2 = private unnamed_addr constant [6 x i8] c"%.5f\0A\00", align 1

; Function Attrs: noinline nounwind uwtable
define dso_local i32 @main() #0 {
  %1 = alloca i32, align 4
  %2 = alloca i32, align 4
  %3 = alloca i32, align 4
  %4 = alloca i32, align 4
  %5 = alloca i32, align 4
  %6 = alloca [1000 x double], align 16
  %7 = alloca double, align 8
  %8 = alloca double, align 8
  %9 = alloca double, align 8
  %10 = alloca double, align 8
  %11 = alloca double, align 8
  store i32 0, i32* %1, align 4
  %12 = call i32 (i8*, ...) @__isoc99_scanf(i8* getelementptr inbounds ([3 x i8], [3 x i8]* @.str, i64 0, i64 0), i32* %3)
  store double 0.000000e+00, double* %7, align 8
  store double 0.000000e+00, double* %10, align 8
  store i32 0, i32* %4, align 4
  br label %13

13:                                               ; preds = %84, %0
  %14 = load i32, i32* %4, align 4
  %15 = load i32, i32* %3, align 4
  %16 = icmp slt i32 %14, %15
  br i1 %16, label %17, label %87

17:                                               ; preds = %13
  %18 = call i32 (i8*, ...) @__isoc99_scanf(i8* getelementptr inbounds ([3 x i8], [3 x i8]* @.str, i64 0, i64 0), i32* %2)
  store i32 0, i32* %5, align 4
  br label %19

19:                                               ; preds = %28, %17
  %20 = load i32, i32* %5, align 4
  %21 = load i32, i32* %2, align 4
  %22 = icmp slt i32 %20, %21
  br i1 %22, label %23, label %31

23:                                               ; preds = %19
  %24 = load i32, i32* %5, align 4
  %25 = sext i32 %24 to i64
  %26 = getelementptr inbounds [1000 x double], [1000 x double]* %6, i64 0, i64 %25
  %27 = call i32 (i8*, ...) @__isoc99_scanf(i8* getelementptr inbounds ([4 x i8], [4 x i8]* @.str.1, i64 0, i64 0), double* %26)
  br label %28

28:                                               ; preds = %23
  %29 = load i32, i32* %5, align 4
  %30 = add nsw i32 %29, 1
  store i32 %30, i32* %5, align 4
  br label %19

31:                                               ; preds = %19
  store i32 0, i32* %5, align 4
  br label %32

32:                                               ; preds = %43, %31
  %33 = load i32, i32* %5, align 4
  %34 = load i32, i32* %2, align 4
  %35 = icmp slt i32 %33, %34
  br i1 %35, label %36, label %46

36:                                               ; preds = %32
  %37 = load i32, i32* %5, align 4
  %38 = sext i32 %37 to i64
  %39 = getelementptr inbounds [1000 x double], [1000 x double]* %6, i64 0, i64 %38
  %40 = load double, double* %39, align 8
  %41 = load double, double* %7, align 8
  %42 = fadd double %41, %40
  store double %42, double* %7, align 8
  br label %43

43:                                               ; preds = %36
  %44 = load i32, i32* %5, align 4
  %45 = add nsw i32 %44, 1
  store i32 %45, i32* %5, align 4
  br label %32

46:                                               ; preds = %32
  %47 = load double, double* %7, align 8
  %48 = load i32, i32* %2, align 4
  %49 = sitofp i32 %48 to double
  %50 = fdiv double %47, %49
  %51 = fmul double %50, 1.000000e+00
  store double %51, double* %8, align 8
  store i32 0, i32* %5, align 4
  br label %52

52:                                               ; preds = %73, %46
  %53 = load i32, i32* %5, align 4
  %54 = load i32, i32* %2, align 4
  %55 = icmp slt i32 %53, %54
  br i1 %55, label %56, label %76

56:                                               ; preds = %52
  %57 = load i32, i32* %5, align 4
  %58 = sext i32 %57 to i64
  %59 = getelementptr inbounds [1000 x double], [1000 x double]* %6, i64 0, i64 %58
  %60 = load double, double* %59, align 8
  %61 = load double, double* %8, align 8
  %62 = fsub double %60, %61
  %63 = load i32, i32* %5, align 4
  %64 = sext i32 %63 to i64
  %65 = getelementptr inbounds [1000 x double], [1000 x double]* %6, i64 0, i64 %64
  %66 = load double, double* %65, align 8
  %67 = load double, double* %8, align 8
  %68 = fsub double %66, %67
  %69 = fmul double %62, %68
  store double %69, double* %9, align 8
  %70 = load double, double* %9, align 8
  %71 = load double, double* %10, align 8
  %72 = fadd double %71, %70
  store double %72, double* %10, align 8
  br label %73

73:                                               ; preds = %56
  %74 = load i32, i32* %5, align 4
  %75 = add nsw i32 %74, 1
  store i32 %75, i32* %5, align 4
  br label %52

76:                                               ; preds = %52
  %77 = load double, double* %10, align 8
  %78 = load i32, i32* %2, align 4
  %79 = sitofp i32 %78 to double
  %80 = fdiv double %77, %79
  %81 = call double @sqrt(double %80) #3
  store double %81, double* %11, align 8
  %82 = load double, double* %11, align 8
  %83 = call i32 (i8*, ...) @printf(i8* getelementptr inbounds ([6 x i8], [6 x i8]* @.str.2, i64 0, i64 0), double %82)
  store double 0.000000e+00, double* %7, align 8
  store double 0.000000e+00, double* %10, align 8
  store double 0.000000e+00, double* %11, align 8
  store double 0.000000e+00, double* %8, align 8
  store double 0.000000e+00, double* %9, align 8
  br label %84

84:                                               ; preds = %76
  %85 = load i32, i32* %4, align 4
  %86 = add nsw i32 %85, 1
  store i32 %86, i32* %4, align 4
  br label %13

87:                                               ; preds = %13
  ret i32 0
}

declare dso_local i32 @__isoc99_scanf(i8*, ...) #1

; Function Attrs: nounwind
declare dso_local double @sqrt(double) #2

declare dso_local i32 @printf(i8*, ...) #1


!llvm.module.flags = !{!0}
!llvm.ident = !{!1}

!0 = !{i32 1, !"wchar_size", i32 4}
!1 = !{!"clang version 10.0.0-4ubuntu1 "}
